; Function Attrs: mustprogress uwtable
define void @_ZN10open_spiel15crowd_modelling19CrowdModellingState19DistributionSupportB5cxx11Ev(ptr dead_on_unwind noalias nonnull writable sret(%"class.std::vector.28") align 8 %0, ptr nocapture noundef nonnull readonly align 8 dereferenceable(120) %1) unnamed_addr #3 align 2 personality ptr @__gxx_personality_v0 {
  %3 = alloca %"class.std::__cxx11::basic_string", align 8
  tail call void @llvm.memset.p0.i64(ptr noundef nonnull align 8 dereferenceable(24) %0, i8 0, i64 24, i1 false)
  %4 = getelementptr inbounds nuw i8, ptr %1, i64 60
  %5 = load i32, ptr %4, align 4
  %6 = sext i32 %5 to i64
  invoke void @_ZNSt6vectorINSt7__cxx1112basic_stringIcSt11char_traitsIcESaIcEEESaIS5_EE7reserveEm(ptr noundef nonnull align 8 dereferenceable(24) %0, i64 noundef %6)
          to label %.preheader unwind label %.loopexit.split-lp

.preheader:                                       ; preds = %2
  %7 = load i32, ptr %4, align 4
  %8 = icmp sgt i32 %7, 0
  br i1 %8, label %.lr.ph, label %._crit_edge

.lr.ph:                                           ; preds = %.preheader
  %9 = getelementptr inbounds nuw i8, ptr %1, i64 80
  %10 = getelementptr inbounds nuw i8, ptr %0, i64 8
  %11 = getelementptr inbounds nuw i8, ptr %0, i64 16
  br label %12

12:                                               ; preds = %.lr.ph, %_ZNSt6vectorINSt7__cxx1112basic_stringIcSt11char_traitsIcESaIcEEESaIS5_EE9push_backEOS5_.exit
  %.09 = phi i32 [ 0, %.lr.ph ], [ %21, %_ZNSt6vectorINSt7__cxx1112basic_stringIcSt11char_traitsIcESaIcEEESaIS5_EE9push_backEOS5_.exit ]
  %13 = load i32, ptr %9, align 8
  invoke fastcc void @_ZN10open_spiel15crowd_modelling12_GLOBAL__N_113StateToStringB5cxx11Eiiib(ptr dead_on_unwind noalias nonnull writable align 8 %3, i32 noundef %.09, i32 noundef %13, i32 noundef -5, i1 noundef zeroext false)
          to label %14 unwind label %.loopexit

14:                                               ; preds = %12
  %15 = load ptr, ptr %10, align 8
  %16 = load ptr, ptr %11, align 8
  %.not.i.i = icmp eq ptr %15, %16
  br i1 %.not.i.i, label %20, label %17

17:                                               ; preds = %14
  call void @_ZNSt7__cxx1112basic_stringIcSt11char_traitsIcESaIcEEC1EOS4_(ptr noundef nonnull align 8 dereferenceable(32) %15, ptr noundef nonnull align 8 dereferenceable(32) %3) #25
  %18 = load ptr, ptr %10, align 8
  %19 = getelementptr inbounds i8, ptr %18, i64 32
  store ptr %19, ptr %10, align 8
  br label %_ZNSt6vectorINSt7__cxx1112basic_stringIcSt11char_traitsIcESaIcEEESaIS5_EE9push_backEOS5_.exit

20:                                               ; preds = %14
  invoke void @_ZNSt6vectorINSt7__cxx1112basic_stringIcSt11char_traitsIcESaIcEEESaIS5_EE17_M_realloc_insertIJS5_EEEvN9__gnu_cxx17__normal_iteratorIPS5_S7_EEDpOT_(ptr noundef nonnull align 8 dereferenceable(24) %0, ptr %15, ptr noundef nonnull align 8 dereferenceable(32) %3)
          to label %_ZNSt6vectorINSt7__cxx1112basic_stringIcSt11char_traitsIcESaIcEEESaIS5_EE9push_backEOS5_.exit unwind label %24

_ZNSt6vectorINSt7__cxx1112basic_stringIcSt11char_traitsIcESaIcEEESaIS5_EE9push_backEOS5_.exit: ; preds = %17, %20
  call void @_ZNSt7__cxx1112basic_stringIcSt11char_traitsIcESaIcEED1Ev(ptr noundef nonnull align 8 dereferenceable(32) %3) #25
  %21 = add nuw nsw i32 %.09, 1
  %22 = load i32, ptr %4, align 4
  %23 = icmp slt i32 %21, %22
  br i1 %23, label %12, label %._crit_edge, !llvm.loop !17

.loopexit:                                        ; preds = %12
  %lpad.loopexit = landingpad { ptr, i32 }
          cleanup
  br label %26

.loopexit.split-lp:                               ; preds = %2
  %lpad.loopexit.split-lp = landingpad { ptr, i32 }
          cleanup
  br label %26

24:                                               ; preds = %20
  %25 = landingpad { ptr, i32 }
          cleanup
  call void @_ZNSt7__cxx1112basic_stringIcSt11char_traitsIcESaIcEED1Ev(ptr noundef nonnull align 8 dereferenceable(32) %3) #25
  br label %26

._crit_edge:                                      ; preds = %_ZNSt6vectorINSt7__cxx1112basic_stringIcSt11char_traitsIcESaIcEEESaIS5_EE9push_backEOS5_.exit, %.preheader
  ret void

26:                                               ; preds = %.loopexit, %.loopexit.split-lp, %24
  %.pn = phi { ptr, i32 } [ %25, %24 ], [ %lpad.loopexit, %.loopexit ], [ %lpad.loopexit.split-lp, %.loopexit.split-lp ]
  call void @_ZNSt6vectorINSt7__cxx1112basic_stringIcSt11char_traitsIcESaIcEEESaIS5_EED2Ev(ptr noundef nonnull align 8 dereferenceable(24) %0) #25
  resume { ptr, i32 } %.pn
}